; Function Attrs: nounwind uwtable
define internal noundef i32 @sxe_object_cast(ptr noundef %0, ptr noundef %1, i32 noundef %2) #1 {
  %4 = icmp eq i32 %2, 6
  br i1 %4, label %5, label %.sink.split

5:                                                ; preds = %3
  %6 = tail call i32 @zend_std_cast_object_tostring(ptr noundef %0, ptr noundef %1, i32 noundef 6) #14
  %7 = icmp eq i32 %6, 0
  br i1 %7, label %9, label %.sink.split

.sink.split:                                      ; preds = %5, %3
  %.sink = phi i32 [ %2, %3 ], [ 6, %5 ]
  %8 = tail call fastcc i32 @sxe_object_cast_ex(ptr noundef %0, ptr noundef %1, i32 noundef %.sink), !range !5
  br label %9

9:                                                ; preds = %.sink.split, %5
  %.0 = phi i32 [ 0, %5 ], [ %8, %.sink.split ]
  ret i32 %.0
}